target datalayout = "e-m:e-p270:32:32-p271:32:32-p272:64:64-i64:64-i128:128-f80:128-n8:16:32:64-S128"
target triple = "x86_64-pc-linux-gnu"

%struct.AVFilterLink = type { ptr, ptr, ptr, ptr, i32, i32, i32, i32, %struct.AVRational, i32, i32, i32, %struct.AVChannelLayout, %struct.AVRational, ptr, i32, %struct.AVFilterFormatsConfig, %struct.AVFilterFormatsConfig }
%struct.AVChannelLayout = type { i32, i32, %union.anon.1, ptr }
%union.anon.1 = type { i64 }
%struct.AVRational = type { i32, i32 }
%struct.AVFilterFormatsConfig = type { ptr, ptr, ptr, ptr, ptr }
%struct.AVFilterContext = type { ptr, ptr, ptr, ptr, ptr, i32, ptr, ptr, i32, ptr, ptr, i32, i32, ptr, ptr, ptr, ptr, i32, ptr, i32, i32 }
%struct.ChromaNRContext = type { ptr, float, float, float, float, i32, i32, i32, i32, i32, i32, i32, i32, i32, i32, i32, i32, i32, [4 x i32], [4 x i32], [4 x i32], ptr, ptr }

; Function Attrs: nounwind uwtable
define internal i32 @filter_frame(ptr noundef %0, ptr noundef %1) #1 {
  %3 = alloca i32, align 4
  %4 = alloca ptr, align 8
  %5 = alloca ptr, align 8
  %6 = alloca ptr, align 8
  %7 = alloca ptr, align 8
  %8 = alloca ptr, align 8
  %9 = alloca ptr, align 8
  %10 = alloca i32, align 4
  store ptr %0, ptr %4, align 8, !tbaa !4
  store ptr %1, ptr %5, align 8, !tbaa !9
  call void @llvm.lifetime.start.p0(i64 8, ptr %6) #6
  %11 = load ptr, ptr %4, align 8, !tbaa !4
  %12 = getelementptr inbounds nuw %struct.AVFilterLink, ptr %11, i32 0, i32 2
  %13 = load ptr, ptr %12, align 8, !tbaa !11
  store ptr %13, ptr %6, align 8, !tbaa !23
  call void @llvm.lifetime.start.p0(i64 8, ptr %7) #6
  %14 = load ptr, ptr %6, align 8, !tbaa !23
  %15 = getelementptr inbounds nuw %struct.AVFilterContext, ptr %14, i32 0, i32 7
  %16 = load ptr, ptr %15, align 8, !tbaa !24
  %17 = getelementptr inbounds ptr, ptr %16, i64 0
  %18 = load ptr, ptr %17, align 8, !tbaa !4
  store ptr %18, ptr %7, align 8, !tbaa !4
  call void @llvm.lifetime.start.p0(i64 8, ptr %8) #6
  %19 = load ptr, ptr %6, align 8, !tbaa !23
  %20 = getelementptr inbounds nuw %struct.AVFilterContext, ptr %19, i32 0, i32 9
  %21 = load ptr, ptr %20, align 8, !tbaa !34
  store ptr %21, ptr %8, align 8, !tbaa !35
  call void @llvm.lifetime.start.p0(i64 8, ptr %9) #6
  %22 = load ptr, ptr %8, align 8, !tbaa !35
  %23 = getelementptr inbounds nuw %struct.ChromaNRContext, ptr %22, i32 0, i32 5
  %24 = load i32, ptr %23, align 8, !tbaa !37
  switch i32 %24, label %41 [
    i32 0, label %25
    i32 1, label %33
  ]

25:                                               ; preds = %2
  %26 = load ptr, ptr %8, align 8, !tbaa !35
  %27 = getelementptr inbounds nuw %struct.ChromaNRContext, ptr %26, i32 0, i32 14
  %28 = load i32, ptr %27, align 4, !tbaa !40
  %29 = icmp sle i32 %28, 8
  %30 = select i1 %29, ptr @manhattan_slice8, ptr @manhattan_slice16
  %31 = load ptr, ptr %8, align 8, !tbaa !35
  %32 = getelementptr inbounds nuw %struct.ChromaNRContext, ptr %31, i32 0, i32 22
  store ptr %30, ptr %32, align 8, !tbaa !41
  br label %41

33:                                               ; preds = %2
  %34 = load ptr, ptr %8, align 8, !tbaa !35
  %35 = getelementptr inbounds nuw %struct.ChromaNRContext, ptr %34, i32 0, i32 14
  %36 = load i32, ptr %35, align 4, !tbaa !40
  %37 = icmp sle i32 %36, 8
  %38 = select i1 %37, ptr @euclidean_slice8, ptr @euclidean_slice16
  %39 = load ptr, ptr %8, align 8, !tbaa !35
  %40 = getelementptr inbounds nuw %struct.ChromaNRContext, ptr %39, i32 0, i32 22
  store ptr %38, ptr %40, align 8, !tbaa !41
  br label %41

41:                                               ; preds = %2, %33, %25
  %42 = load ptr, ptr %8, align 8, !tbaa !35
  %43 = getelementptr inbounds nuw %struct.ChromaNRContext, ptr %42, i32 0, i32 1
  %44 = load float, ptr %43, align 8, !tbaa !42
  %45 = load ptr, ptr %8, align 8, !tbaa !35
  %46 = getelementptr inbounds nuw %struct.ChromaNRContext, ptr %45, i32 0, i32 14
  %47 = load i32, ptr %46, align 4, !tbaa !40
  %48 = sub nsw i32 %47, 8
  %49 = shl i32 1, %48
  %50 = sitofp i32 %49 to float
  %51 = fmul nsz float %44, %50
  %52 = fptosi float %51 to i32
  %53 = load ptr, ptr %8, align 8, !tbaa !35
  %54 = getelementptr inbounds nuw %struct.ChromaNRContext, ptr %53, i32 0, i32 6
  store i32 %52, ptr %54, align 4, !tbaa !43
  %55 = load ptr, ptr %8, align 8, !tbaa !35
  %56 = getelementptr inbounds nuw %struct.ChromaNRContext, ptr %55, i32 0, i32 2
  %57 = load float, ptr %56, align 4, !tbaa !44
  %58 = load ptr, ptr %8, align 8, !tbaa !35
  %59 = getelementptr inbounds nuw %struct.ChromaNRContext, ptr %58, i32 0, i32 14
  %60 = load i32, ptr %59, align 4, !tbaa !40
  %61 = sub nsw i32 %60, 8
  %62 = shl i32 1, %61
  %63 = sitofp i32 %62 to float
  %64 = fmul nsz float %57, %63
  %65 = fptosi float %64 to i32
  %66 = load ptr, ptr %8, align 8, !tbaa !35
  %67 = getelementptr inbounds nuw %struct.ChromaNRContext, ptr %66, i32 0, i32 7
  store i32 %65, ptr %67, align 8, !tbaa !45
  %68 = load ptr, ptr %8, align 8, !tbaa !35
  %69 = getelementptr inbounds nuw %struct.ChromaNRContext, ptr %68, i32 0, i32 3
  %70 = load float, ptr %69, align 8, !tbaa !46
  %71 = load ptr, ptr %8, align 8, !tbaa !35
  %72 = getelementptr inbounds nuw %struct.ChromaNRContext, ptr %71, i32 0, i32 14
  %73 = load i32, ptr %72, align 4, !tbaa !40
  %74 = sub nsw i32 %73, 8
  %75 = shl i32 1, %74
  %76 = sitofp i32 %75 to float
  %77 = fmul nsz float %70, %76
  %78 = fptosi float %77 to i32
  %79 = load ptr, ptr %8, align 8, !tbaa !35
  %80 = getelementptr inbounds nuw %struct.ChromaNRContext, ptr %79, i32 0, i32 8
  store i32 %78, ptr %80, align 4, !tbaa !47
  %81 = load ptr, ptr %8, align 8, !tbaa !35
  %82 = getelementptr inbounds nuw %struct.ChromaNRContext, ptr %81, i32 0, i32 4
  %83 = load float, ptr %82, align 4, !tbaa !48
  %84 = load ptr, ptr %8, align 8, !tbaa !35
  %85 = getelementptr inbounds nuw %struct.ChromaNRContext, ptr %84, i32 0, i32 14
  %86 = load i32, ptr %85, align 4, !tbaa !40
  %87 = sub nsw i32 %86, 8
  %88 = shl i32 1, %87
  %89 = sitofp i32 %88 to float
  %90 = fmul nsz float %83, %89
  %91 = fptosi float %90 to i32
  %92 = load ptr, ptr %8, align 8, !tbaa !35
  %93 = getelementptr inbounds nuw %struct.ChromaNRContext, ptr %92, i32 0, i32 9
  store i32 %91, ptr %93, align 8, !tbaa !49
  %94 = load ptr, ptr %8, align 8, !tbaa !35
  %95 = getelementptr inbounds nuw %struct.ChromaNRContext, ptr %94, i32 0, i32 2
  %96 = load float, ptr %95, align 4, !tbaa !44
  %97 = fcmp nsz olt float %96, 2.000000e+02
  br i1 %97, label %108, label %98

98:                                               ; preds = %41
  %99 = load ptr, ptr %8, align 8, !tbaa !35
  %100 = getelementptr inbounds nuw %struct.ChromaNRContext, ptr %99, i32 0, i32 3
  %101 = load float, ptr %100, align 8, !tbaa !46
  %102 = fcmp nsz olt float %101, 2.000000e+02
  br i1 %102, label %108, label %103

103:                                              ; preds = %98
  %104 = load ptr, ptr %8, align 8, !tbaa !35
  %105 = getelementptr inbounds nuw %struct.ChromaNRContext, ptr %104, i32 0, i32 4
  %106 = load float, ptr %105, align 4, !tbaa !48
  %107 = fcmp nsz olt float %106, 2.000000e+02
  br i1 %107, label %108, label %129

108:                                              ; preds = %103, %98, %41
  %109 = load ptr, ptr %8, align 8, !tbaa !35
  %110 = getelementptr inbounds nuw %struct.ChromaNRContext, ptr %109, i32 0, i32 5
  %111 = load i32, ptr %110, align 8, !tbaa !37
  switch i32 %111, label %128 [
    i32 0, label %112
    i32 1, label %120
  ]

112:                                              ; preds = %108
  %113 = load ptr, ptr %8, align 8, !tbaa !35
  %114 = getelementptr inbounds nuw %struct.ChromaNRContext, ptr %113, i32 0, i32 14
  %115 = load i32, ptr %114, align 4, !tbaa !40
  %116 = icmp sle i32 %115, 8
  %117 = select i1 %116, ptr @manhattan_e_slice8, ptr @manhattan_e_slice16
  %118 = load ptr, ptr %8, align 8, !tbaa !35
  %119 = getelementptr inbounds nuw %struct.ChromaNRContext, ptr %118, i32 0, i32 22
  store ptr %117, ptr %119, align 8, !tbaa !41
  br label %128

120:                                              ; preds = %108
  %121 = load ptr, ptr %8, align 8, !tbaa !35
  %122 = getelementptr inbounds nuw %struct.ChromaNRContext, ptr %121, i32 0, i32 14
  %123 = load i32, ptr %122, align 4, !tbaa !40
  %124 = icmp sle i32 %123, 8
  %125 = select i1 %124, ptr @euclidean_e_slice8, ptr @euclidean_e_slice16
  %126 = load ptr, ptr %8, align 8, !tbaa !35
  %127 = getelementptr inbounds nuw %struct.ChromaNRContext, ptr %126, i32 0, i32 22
  store ptr %125, ptr %127, align 8, !tbaa !41
  br label %128

128:                                              ; preds = %108, %120, %112
  br label %129

129:                                              ; preds = %128, %103
  %130 = load ptr, ptr %7, align 8, !tbaa !4
  %131 = load ptr, ptr %7, align 8, !tbaa !4
  %132 = getelementptr inbounds nuw %struct.AVFilterLink, ptr %131, i32 0, i32 6
  %133 = load i32, ptr %132, align 8, !tbaa !50
  %134 = load ptr, ptr %7, align 8, !tbaa !4
  %135 = getelementptr inbounds nuw %struct.AVFilterLink, ptr %134, i32 0, i32 7
  %136 = load i32, ptr %135, align 4, !tbaa !51
  %137 = call ptr @ff_get_video_buffer(ptr noundef %130, i32 noundef %133, i32 noundef %136)
  store ptr %137, ptr %9, align 8, !tbaa !9
  %138 = load ptr, ptr %9, align 8, !tbaa !9
  %139 = icmp ne ptr %138, null
  br i1 %139, label %141, label %140

140:                                              ; preds = %129
  call void @av_frame_free(ptr noundef %5)
  store i32 -12, ptr %3, align 4
  store i32 1, ptr %10, align 4
  br label %208

141:                                              ; preds = %129
  %142 = load ptr, ptr %9, align 8, !tbaa !9
  %143 = load ptr, ptr %5, align 8, !tbaa !9
  %144 = call i32 @av_frame_copy_props(ptr noundef %142, ptr noundef %143)
  %145 = load ptr, ptr %9, align 8, !tbaa !9
  %146 = load ptr, ptr %8, align 8, !tbaa !35
  %147 = getelementptr inbounds nuw %struct.ChromaNRContext, ptr %146, i32 0, i32 21
  store ptr %145, ptr %147, align 8, !tbaa !52
  %148 = load ptr, ptr %6, align 8, !tbaa !23
  %149 = load ptr, ptr %8, align 8, !tbaa !35
  %150 = getelementptr inbounds nuw %struct.ChromaNRContext, ptr %149, i32 0, i32 22
  %151 = load ptr, ptr %150, align 8, !tbaa !41
  %152 = load ptr, ptr %5, align 8, !tbaa !9
  %153 = load ptr, ptr %8, align 8, !tbaa !35
  %154 = getelementptr inbounds nuw %struct.ChromaNRContext, ptr %153, i32 0, i32 19
  %155 = getelementptr inbounds [4 x i32], ptr %154, i64 0, i64 1
  %156 = load i32, ptr %155, align 4, !tbaa !53
  %157 = load ptr, ptr %8, align 8, !tbaa !35
  %158 = getelementptr inbounds nuw %struct.ChromaNRContext, ptr %157, i32 0, i32 19
  %159 = getelementptr inbounds [4 x i32], ptr %158, i64 0, i64 2
  %160 = load i32, ptr %159, align 4, !tbaa !53
  %161 = icmp sgt i32 %156, %160
  br i1 %161, label %162, label %167

162:                                              ; preds = %141
  %163 = load ptr, ptr %8, align 8, !tbaa !35
  %164 = getelementptr inbounds nuw %struct.ChromaNRContext, ptr %163, i32 0, i32 19
  %165 = getelementptr inbounds [4 x i32], ptr %164, i64 0, i64 2
  %166 = load i32, ptr %165, align 4, !tbaa !53
  br label %172

167:                                              ; preds = %141
  %168 = load ptr, ptr %8, align 8, !tbaa !35
  %169 = getelementptr inbounds nuw %struct.ChromaNRContext, ptr %168, i32 0, i32 19
  %170 = getelementptr inbounds [4 x i32], ptr %169, i64 0, i64 1
  %171 = load i32, ptr %170, align 4, !tbaa !53
  br label %172

172:                                              ; preds = %167, %162
  %173 = phi i32 [ %166, %162 ], [ %171, %167 ]
  %174 = load ptr, ptr %6, align 8, !tbaa !23
  %175 = call i32 @ff_filter_get_nb_threads(ptr noundef %174) #7
  %176 = icmp sgt i32 %173, %175
  br i1 %176, label %177, label %180

177:                                              ; preds = %172
  %178 = load ptr, ptr %6, align 8, !tbaa !23
  %179 = call i32 @ff_filter_get_nb_threads(ptr noundef %178) #7
  br label %202

180:                                              ; preds = %172
  %181 = load ptr, ptr %8, align 8, !tbaa !35
  %182 = getelementptr inbounds nuw %struct.ChromaNRContext, ptr %181, i32 0, i32 19
  %183 = getelementptr inbounds [4 x i32], ptr %182, i64 0, i64 1
  %184 = load i32, ptr %183, align 4, !tbaa !53
  %185 = load ptr, ptr %8, align 8, !tbaa !35
  %186 = getelementptr inbounds nuw %struct.ChromaNRContext, ptr %185, i32 0, i32 19
  %187 = getelementptr inbounds [4 x i32], ptr %186, i64 0, i64 2
  %188 = load i32, ptr %187, align 4, !tbaa !53
  %189 = icmp sgt i32 %184, %188
  br i1 %189, label %190, label %195

190:                                              ; preds = %180
  %191 = load ptr, ptr %8, align 8, !tbaa !35
  %192 = getelementptr inbounds nuw %struct.ChromaNRContext, ptr %191, i32 0, i32 19
  %193 = getelementptr inbounds [4 x i32], ptr %192, i64 0, i64 2
  %194 = load i32, ptr %193, align 4, !tbaa !53
  br label %200

195:                                              ; preds = %180
  %196 = load ptr, ptr %8, align 8, !tbaa !35
  %197 = getelementptr inbounds nuw %struct.ChromaNRContext, ptr %196, i32 0, i32 19
  %198 = getelementptr inbounds [4 x i32], ptr %197, i64 0, i64 1
  %199 = load i32, ptr %198, align 4, !tbaa !53
  br label %200

200:                                              ; preds = %195, %190
  %201 = phi i32 [ %194, %190 ], [ %199, %195 ]
  br label %202

202:                                              ; preds = %200, %177
  %203 = phi i32 [ %179, %177 ], [ %201, %200 ]
  %204 = call i32 @ff_filter_execute(ptr noundef %148, ptr noundef %151, ptr noundef %152, ptr noundef null, i32 noundef %203)
  call void @av_frame_free(ptr noundef %5)
  %205 = load ptr, ptr %7, align 8, !tbaa !4
  %206 = load ptr, ptr %9, align 8, !tbaa !9
  %207 = call i32 @ff_filter_frame(ptr noundef %205, ptr noundef %206)
  store i32 %207, ptr %3, align 4
  store i32 1, ptr %10, align 4
  br label %208

208:                                              ; preds = %202, %140
  call void @llvm.lifetime.end.p0(i64 8, ptr %9) #6
  call void @llvm.lifetime.end.p0(i64 8, ptr %8) #6
  call void @llvm.lifetime.end.p0(i64 8, ptr %7) #6
  call void @llvm.lifetime.end.p0(i64 8, ptr %6) #6
  %209 = load i32, ptr %3, align 4
  ret i32 %209
}