; Function Attrs: nounwind uwtable
define internal i32 @filter_frame(ptr noundef readonly captures(none) %0, ptr noundef %1) #1 {
  %3 = alloca ptr, align 8
  store ptr %1, ptr %3, align 8, !tbaa !4
  %4 = getelementptr inbounds nuw i8, ptr %0, i64 16
  %5 = load ptr, ptr %4, align 8, !tbaa !9
  %6 = getelementptr inbounds nuw i8, ptr %5, i64 56
  %7 = load ptr, ptr %6, align 8, !tbaa !21
  %8 = load ptr, ptr %7, align 8, !tbaa !31
  %9 = getelementptr inbounds nuw i8, ptr %5, i64 72
  %10 = load ptr, ptr %9, align 8, !tbaa !33
  %11 = getelementptr inbounds nuw i8, ptr %10, i64 24
  %12 = load i32, ptr %11, align 8, !tbaa !34
  %.phi.trans.insert = getelementptr inbounds nuw i8, ptr %10, i64 60
  %.pre = load i32, ptr %.phi.trans.insert, align 4, !tbaa !37
  switch i32 %12, label %._crit_edge [
    i32 0, label %13
    i32 1, label %16
  ]

13:                                               ; preds = %2
  %14 = icmp slt i32 %.pre, 9
  %15 = select i1 %14, ptr @manhattan_slice8, ptr @manhattan_slice16
  br label %._crit_edge.sink.split

16:                                               ; preds = %2
  %17 = icmp slt i32 %.pre, 9
  %18 = select i1 %17, ptr @euclidean_slice8, ptr @euclidean_slice16
  br label %._crit_edge.sink.split

._crit_edge.sink.split:                           ; preds = %13, %16
  %.sink = phi ptr [ %18, %16 ], [ %15, %13 ]
  %19 = getelementptr inbounds nuw i8, ptr %10, i64 136
  store ptr %.sink, ptr %19, align 8, !tbaa !38
  br label %._crit_edge

._crit_edge:                                      ; preds = %._crit_edge.sink.split, %2
  %20 = getelementptr inbounds nuw i8, ptr %10, i64 8
  %21 = load float, ptr %20, align 8, !tbaa !39
  %22 = add nsw i32 %.pre, -8
  %23 = shl nuw i32 1, %22
  %24 = sitofp i32 %23 to float
  %25 = fmul nsz float %21, %24
  %26 = fptosi float %25 to i32
  %27 = getelementptr inbounds nuw i8, ptr %10, i64 28
  store i32 %26, ptr %27, align 4, !tbaa !40
  %28 = getelementptr inbounds nuw i8, ptr %10, i64 12
  %29 = load float, ptr %28, align 4, !tbaa !41
  %30 = fmul nsz float %29, %24
  %31 = fptosi float %30 to i32
  %32 = getelementptr inbounds nuw i8, ptr %10, i64 32
  store i32 %31, ptr %32, align 8, !tbaa !42
  %33 = getelementptr inbounds nuw i8, ptr %10, i64 16
  %34 = load float, ptr %33, align 8, !tbaa !43
  %35 = fmul nsz float %34, %24
  %36 = fptosi float %35 to i32
  %37 = getelementptr inbounds nuw i8, ptr %10, i64 36
  store i32 %36, ptr %37, align 4, !tbaa !44
  %38 = getelementptr inbounds nuw i8, ptr %10, i64 20
  %39 = load float, ptr %38, align 4, !tbaa !45
  %40 = fmul nsz float %39, %24
  %41 = fptosi float %40 to i32
  %42 = getelementptr inbounds nuw i8, ptr %10, i64 40
  store i32 %41, ptr %42, align 8, !tbaa !46
  %43 = fcmp nsz olt float %29, 2.000000e+02
  %44 = fcmp nsz olt float %34, 2.000000e+02
  %or.cond = select i1 %43, i1 true, i1 %44
  %45 = fcmp nsz olt float %39, 2.000000e+02
  %or.cond56 = select i1 %or.cond, i1 true, i1 %45
  br i1 %or.cond56, label %46, label %54

46:                                               ; preds = %._crit_edge
  switch i32 %12, label %54 [
    i32 0, label %47
    i32 1, label %50
  ]

47:                                               ; preds = %46
  %48 = icmp slt i32 %.pre, 9
  %49 = select i1 %48, ptr @manhattan_e_slice8, ptr @manhattan_e_slice16
  br label %.sink.split

50:                                               ; preds = %46
  %51 = icmp slt i32 %.pre, 9
  %52 = select i1 %51, ptr @euclidean_e_slice8, ptr @euclidean_e_slice16
  br label %.sink.split

.sink.split:                                      ; preds = %50, %47
  %.sink58 = phi ptr [ %49, %47 ], [ %52, %50 ]
  %53 = getelementptr inbounds nuw i8, ptr %10, i64 136
  store ptr %.sink58, ptr %53, align 8, !tbaa !38
  br label %54

54:                                               ; preds = %.sink.split, %._crit_edge, %46
  %55 = getelementptr inbounds nuw i8, ptr %8, i64 40
  %56 = load i32, ptr %55, align 8, !tbaa !47
  %57 = getelementptr inbounds nuw i8, ptr %8, i64 44
  %58 = load i32, ptr %57, align 4, !tbaa !48
  %59 = tail call ptr @ff_get_video_buffer(ptr noundef %8, i32 noundef %56, i32 noundef %58) #5
  %.not = icmp eq ptr %59, null
  br i1 %.not, label %60, label %61

60:                                               ; preds = %54
  call void @av_frame_free(ptr noundef nonnull %3) #5
  br label %73

61:                                               ; preds = %54
  %62 = tail call i32 @av_frame_copy_props(ptr noundef nonnull %59, ptr noundef %1) #5
  %63 = getelementptr inbounds nuw i8, ptr %10, i64 128
  store ptr %59, ptr %63, align 8, !tbaa !49
  %64 = getelementptr inbounds nuw i8, ptr %10, i64 136
  %65 = load ptr, ptr %64, align 8, !tbaa !38
  %66 = getelementptr inbounds nuw i8, ptr %10, i64 96
  %67 = load i32, ptr %66, align 4, !tbaa !50
  %68 = getelementptr inbounds nuw i8, ptr %10, i64 100
  %69 = load i32, ptr %68, align 4, !tbaa !50
  %. = tail call i32 @llvm.smin.i32(i32 %67, i32 %69)
  %70 = tail call i32 @ff_filter_get_nb_threads(ptr noundef nonnull %5) #6
  %spec.select = tail call i32 @llvm.smin.i32(i32 %., i32 %70)
  %71 = tail call i32 @ff_filter_execute(ptr noundef nonnull %5, ptr noundef %65, ptr noundef %1, ptr noundef null, i32 noundef %spec.select) #5
  call void @av_frame_free(ptr noundef nonnull %3) #5
  %72 = call i32 @ff_filter_frame(ptr noundef nonnull %8, ptr noundef nonnull %59) #5
  br label %73

73:                                               ; preds = %61, %60
  %.0 = phi i32 [ %72, %61 ], [ -12, %60 ]
  ret i32 %.0
}